target datalayout = "e-m:e-p270:32:32-p271:32:32-p272:64:64-i64:64-i128:128-f80:128-n8:16:32:64-S128"
target triple = "x86_64-pc-linux-gnu"

; Function Attrs: nounwind null_pointer_is_valid sspstrong uwtable
define internal void @get_len_6bit_ascii(ptr noundef %0, ptr noundef %1, ptr noundef %2, i32 noundef %3, i32 noundef %4, i1 noundef zeroext %5) #4 {
  %7 = alloca ptr, align 8
  %8 = alloca ptr, align 8
  %9 = alloca ptr, align 8
  %10 = alloca i32, align 4
  %11 = alloca i32, align 4
  %12 = alloca i8, align 1
  store ptr %0, ptr %7, align 8
  store ptr %1, ptr %8, align 8
  store ptr %2, ptr %9, align 8
  store i32 %3, ptr %10, align 4
  store i32 %4, ptr %11, align 4
  %13 = zext i1 %5 to i8
  store i8 %13, ptr %12, align 1
  %14 = load i8, ptr %12, align 1, !range !6, !noundef !7
  %15 = trunc i8 %14 to i1
  br i1 %15, label %16, label %23

16:                                               ; preds = %6
  %17 = load i32, ptr %11, align 4
  %18 = mul i32 %17, 4
  %19 = udiv i32 %18, 3
  %20 = load ptr, ptr %7, align 8
  store i32 %19, ptr %20, align 4
  %21 = load i32, ptr %11, align 4
  %22 = load ptr, ptr %8, align 8
  store i32 %21, ptr %22, align 4
  br label %31

23:                                               ; preds = %6
  %24 = load i32, ptr %11, align 4
  %25 = mul i32 %24, 3
  %26 = add i32 %25, 3
  %27 = udiv i32 %26, 4
  %28 = load ptr, ptr %8, align 8
  store i32 %27, ptr %28, align 4
  %29 = load i32, ptr %11, align 4
  %30 = load ptr, ptr %7, align 8
  store i32 %29, ptr %30, align 4
  br label %31

31:                                               ; preds = %23, %16
  ret void
}