; Function Attrs: mustprogress nofree norecurse nosync nounwind null_pointer_is_valid sspstrong willreturn memory(write, inaccessiblemem: none) uwtable
define internal void @get_len_6bit_ascii(ptr noundef writeonly captures(none) %0, ptr noundef writeonly captures(none) %1, ptr readnone captures(none) %2, i32 %3, i32 noundef %4, i1 noundef zeroext %5) #10 {
  br i1 %5, label %7, label %10

7:                                                ; preds = %6
  %8 = shl i32 %4, 2
  %9 = udiv i32 %8, 3
  store i32 %9, ptr %0, align 4
  br label %14

10:                                               ; preds = %6
  %11 = mul i32 %4, 3
  %12 = add i32 %11, 3
  %13 = lshr i32 %12, 2
  store i32 %13, ptr %1, align 4
  br label %14

14:                                               ; preds = %10, %7
  %.sink = phi ptr [ %0, %10 ], [ %1, %7 ]
  store i32 %4, ptr %.sink, align 4
  ret void
}